	.file	"06functionspeed.cc"
	.section .rdata,"dr"
_ZStL19piecewise_construct:
	.space 1
.lcomm _ZStL8__ioinit,1,1
	.text
	.globl	_Z1fd
	.def	_Z1fd;	.scl	2;	.type	32;	.endef
	.seh_proc	_Z1fd
_Z1fd:
.LFB1516:
	pushq	%rbp
	.seh_pushreg	%rbp
	movq	%rsp, %rbp
	.seh_setframe	%rbp, 0
	.seh_endprologue
	movsd	%xmm0, 16(%rbp)
	movsd	16(%rbp), %xmm0
	mulsd	16(%rbp), %xmm0
	popq	%rbp
	ret
	.seh_endproc
	.def	__main;	.scl	2;	.type	32;	.endef
	.globl	main
	.def	main;	.scl	2;	.type	32;	.endef
	.seh_proc	main
main:
.LFB1517:
	pushq	%rbp
	.seh_pushreg	%rbp
	movq	%rsp, %rbp
	.seh_setframe	%rbp, 0
	subq	$80, %rsp
	.seh_stackalloc	80
	movaps	%xmm6, -16(%rbp)
	.seh_savexmm	%xmm6, 64
	.seh_endprologue
	call	__main
	movq	$100000000, -40(%rbp)
	movq	$0, -24(%rbp)
	movq	$1, -32(%rbp)
.L5:
	cmpq	$100000000, -32(%rbp)
	jg	.L4
	pxor	%xmm6, %xmm6
	cvtsi2sdq	-24(%rbp), %xmm6
	pxor	%xmm0, %xmm0
	cvtsi2sdq	-32(%rbp), %xmm0
	call	_Z1fd
	addsd	%xmm6, %xmm0
	cvttsd2siq	%xmm0, %rax
	movq	%rax, -24(%rbp)
	addq	$1, -32(%rbp)
	jmp	.L5
.L4:
	movq	-24(%rbp), %rax
	movq	%rax, %rdx
	movq	.refptr._ZSt4cout(%rip), %rcx
	call	_ZNSolsEx
	movl	$0, %eax
	movaps	-16(%rbp), %xmm6
	addq	$80, %rsp
	popq	%rbp
	ret
	.seh_endproc
	.def	__tcf_0;	.scl	3;	.type	32;	.endef
	.seh_proc	__tcf_0
__tcf_0:
.LFB1955:
	pushq	%rbp
	.seh_pushreg	%rbp
	movq	%rsp, %rbp
	.seh_setframe	%rbp, 0
	subq	$32, %rsp
	.seh_stackalloc	32
	.seh_endprologue
	leaq	_ZStL8__ioinit(%rip), %rcx
	call	_ZNSt8ios_base4InitD1Ev
	nop
	addq	$32, %rsp
	popq	%rbp
	ret
	.seh_endproc
	.def	_Z41__static_initialization_and_destruction_0ii;	.scl	3;	.type	32;	.endef
	.seh_proc	_Z41__static_initialization_and_destruction_0ii
_Z41__static_initialization_and_destruction_0ii:
.LFB1954:
	pushq	%rbp
	.seh_pushreg	%rbp
	movq	%rsp, %rbp
	.seh_setframe	%rbp, 0
	subq	$32, %rsp
	.seh_stackalloc	32
	.seh_endprologue
	movl	%ecx, 16(%rbp)
	movl	%edx, 24(%rbp)
	cmpl	$1, 16(%rbp)
	jne	.L10
	cmpl	$65535, 24(%rbp)
	jne	.L10
	leaq	_ZStL8__ioinit(%rip), %rcx
	call	_ZNSt8ios_base4InitC1Ev
	leaq	__tcf_0(%rip), %rcx
	call	atexit
.L10:
	nop
	addq	$32, %rsp
	popq	%rbp
	ret
	.seh_endproc
	.def	_GLOBAL__sub_I__Z1fd;	.scl	3;	.type	32;	.endef
	.seh_proc	_GLOBAL__sub_I__Z1fd
_GLOBAL__sub_I__Z1fd:
.LFB1956:
	pushq	%rbp
	.seh_pushreg	%rbp
	movq	%rsp, %rbp
	.seh_setframe	%rbp, 0
	subq	$32, %rsp
	.seh_stackalloc	32
	.seh_endprologue
	movl	$65535, %edx
	movl	$1, %ecx
	call	_Z41__static_initialization_and_destruction_0ii
	nop
	addq	$32, %rsp
	popq	%rbp
	ret
	.seh_endproc
	.section	.ctors,"w"
	.align 8
	.quad	_GLOBAL__sub_I__Z1fd
	.ident	"GCC: (Rev1, Built by MSYS2 project) 6.3.0"
	.def	_ZNSolsEx;	.scl	2;	.type	32;	.endef
	.def	_ZNSt8ios_base4InitD1Ev;	.scl	2;	.type	32;	.endef
	.def	_ZNSt8ios_base4InitC1Ev;	.scl	2;	.type	32;	.endef
	.def	atexit;	.scl	2;	.type	32;	.endef
	.section	.rdata$.refptr._ZSt4cout, "dr"
	.globl	.refptr._ZSt4cout
	.linkonce	discard
.refptr._ZSt4cout:
	.quad	_ZSt4cout
